#include <math.h>
#include <stdio.h>
#include <stdlib.h>
#include <string.h>

int main(){
	int w,i,j;
	scanf("%d",&w);
	for(j=1;j<=12;j++){
		int days[]={0,31,28,31,30,31,30,31,31,30,31,30,31};
			int a=0;
		for(i=0;i<j;i++){
			a+=days[i];
		}
		a=a+12;
		if((a+w)%7==5){
			printf("%d\n",j);
		}
	}
	return 0;
}